; Function Attrs: null_pointer_is_valid sspstrong uwtable
define internal fastcc i32 @dissect_nfs4_mode_umask(ptr noundef %0, ptr noundef %1, i32 noundef %2) unnamed_addr #0 {
  %4 = load i32, ptr @hf_nfs2_mode, align 4
  %5 = load i32, ptr @ett_nfs2_mode, align 4
  %6 = tail call ptr @proto_tree_add_bitmask(ptr noundef %1, ptr noundef %0, i32 noundef %2, i32 noundef %4, i32 noundef %5, ptr noundef nonnull @dissect_nfs2_mode.modes, i32 noundef 0)
  %7 = add i32 %2, 4
  %8 = load i32, ptr @hf_nfs4_fattr_umask_mask, align 4
  %9 = tail call i32 @dissect_rpc_uint32(ptr noundef %0, ptr noundef %1, i32 noundef %8, i32 noundef %7)
  ret i32 %9
}